; Function Attrs: mustprogress uwtable
define void @_ZNO8facebook3jsi6Object10asFunctionERNS0_7RuntimeE(ptr noalias nocapture writeonly sret(%"class.facebook::jsi::Function") align 8 %agg.result, ptr noundef nonnull align 8 dereferenceable(8) %this, ptr noundef nonnull align 8 dereferenceable(8) %runtime) local_unnamed_addr #11 align 2 personality ptr @__gxx_personality_v0 {
entry:
  %agg.tmp = alloca %"class.std::__cxx11::basic_string", align 8
  %ref.tmp = alloca %"class.std::__cxx11::basic_string", align 8
  %ref.tmp2 = alloca %"class.std::__cxx11::basic_string", align 8
  %ref.tmp3 = alloca %"class.facebook::jsi::Value", align 8
  %vtable.i = load ptr, ptr %runtime, align 8
  %vfn.i = getelementptr inbounds i8, ptr %vtable.i, i64 376
  %0 = load ptr, ptr %vfn.i, align 8
  %call.i = tail call noundef zeroext i1 %0(ptr noundef nonnull align 8 dereferenceable(8) %runtime, ptr noundef nonnull align 8 dereferenceable(8) %this)
  br i1 %call.i, label %if.end, label %if.then

if.then:                                          ; preds = %entry
  %exception = tail call ptr @__cxa_allocate_exception(i64 120) #23
  store i32 7, ptr %ref.tmp3, align 8
  %1 = load ptr, ptr %this, align 8
  %vtable.i9 = load ptr, ptr %runtime, align 8
  %vfn.i10 = getelementptr inbounds i8, ptr %vtable.i9, i64 104
  %2 = load ptr, ptr %vfn.i10, align 8
  %call.i11 = invoke noundef ptr %2(ptr noundef nonnull align 8 dereferenceable(8) %runtime, ptr noundef %1)
          to label %invoke.cont unwind label %lpad.i

lpad.i:                                           ; preds = %if.then
  %3 = landingpad { ptr, i32 }
          cleanup
  call void @_ZN8facebook3jsi5ValueD2Ev(ptr noundef nonnull align 8 dereferenceable(16) %ref.tmp3) #23
  br label %cleanup.action

invoke.cont:                                      ; preds = %if.then
  %data_.i = getelementptr inbounds i8, ptr %ref.tmp3, i64 8
  store ptr %call.i11, ptr %data_.i, align 8
  invoke fastcc void @_ZN8facebook3jsi12_GLOBAL__N_112kindToStringB5cxx11ERKNS0_5ValueEPNS0_7RuntimeE(ptr noalias nonnull align 8 %ref.tmp2, ptr noundef nonnull align 8 dereferenceable(16) %ref.tmp3, ptr noundef nonnull %runtime)
          to label %invoke.cont5 unwind label %ehcleanup14.thread20

invoke.cont5:                                     ; preds = %invoke.cont
  %call.i1213 = invoke noundef nonnull align 8 dereferenceable(32) ptr @_ZNSt7__cxx1112basic_stringIcSt11char_traitsIcESaIcEE6insertEmPKc(ptr noundef nonnull align 8 dereferenceable(32) %ref.tmp2, i64 noundef 0, ptr noundef nonnull @.str.9)
          to label %invoke.cont7 unwind label %lpad6

invoke.cont7:                                     ; preds = %invoke.cont5
  call void @_ZNSt7__cxx1112basic_stringIcSt11char_traitsIcESaIcEEC1EOS4_(ptr noundef nonnull align 8 dereferenceable(32) %ref.tmp, ptr noundef nonnull align 8 dereferenceable(32) %call.i1213) #23
  %call.i1415 = invoke noundef nonnull align 8 dereferenceable(32) ptr @_ZNSt7__cxx1112basic_stringIcSt11char_traitsIcESaIcEE6appendEPKc(ptr noundef nonnull align 8 dereferenceable(32) %ref.tmp, ptr noundef nonnull @.str.11)
          to label %invoke.cont9 unwind label %lpad8

invoke.cont9:                                     ; preds = %invoke.cont7
  call void @_ZNSt7__cxx1112basic_stringIcSt11char_traitsIcESaIcEEC1EOS4_(ptr noundef nonnull align 8 dereferenceable(32) %agg.tmp, ptr noundef nonnull align 8 dereferenceable(32) %call.i1415) #23
  invoke void @_ZN8facebook3jsi7JSErrorC1ERNS0_7RuntimeENSt7__cxx1112basic_stringIcSt11char_traitsIcESaIcEEE(ptr noundef nonnull align 8 dereferenceable(120) %exception, ptr noundef nonnull align 8 dereferenceable(8) %runtime, ptr noundef nonnull %agg.tmp)
          to label %invoke.cont11 unwind label %lpad10

invoke.cont11:                                    ; preds = %invoke.cont9
  invoke void @__cxa_throw(ptr %exception, ptr nonnull @_ZTIN8facebook3jsi7JSErrorE, ptr nonnull @_ZN8facebook3jsi7JSErrorD1Ev) #24
          to label %unreachable unwind label %lpad10

ehcleanup14.thread20:                             ; preds = %invoke.cont
  %4 = landingpad { ptr, i32 }
          cleanup
  call void @_ZN8facebook3jsi5ValueD1Ev(ptr noundef nonnull align 8 dereferenceable(16) %ref.tmp3) #23
  br label %cleanup.action

lpad6:                                            ; preds = %invoke.cont5
  %5 = landingpad { ptr, i32 }
          cleanup
  br label %ehcleanup14

lpad8:                                            ; preds = %invoke.cont7
  %6 = landingpad { ptr, i32 }
          cleanup
  br label %ehcleanup

lpad10:                                           ; preds = %invoke.cont11, %invoke.cont9
  %cleanup.isactive.0 = phi i1 [ false, %invoke.cont11 ], [ true, %invoke.cont9 ]
  %7 = landingpad { ptr, i32 }
          cleanup
  call void @_ZNSt7__cxx1112basic_stringIcSt11char_traitsIcESaIcEED1Ev(ptr noundef nonnull align 8 dereferenceable(32) %agg.tmp) #23
  br label %ehcleanup

ehcleanup:                                        ; preds = %lpad10, %lpad8
  %.pn = phi { ptr, i32 } [ %7, %lpad10 ], [ %6, %lpad8 ]
  %cleanup.isactive.1 = phi i1 [ %cleanup.isactive.0, %lpad10 ], [ true, %lpad8 ]
  call void @_ZNSt7__cxx1112basic_stringIcSt11char_traitsIcESaIcEED1Ev(ptr noundef nonnull align 8 dereferenceable(32) %ref.tmp) #23
  br label %ehcleanup14

ehcleanup14:                                      ; preds = %lpad6, %ehcleanup
  %.pn.pn = phi { ptr, i32 } [ %.pn, %ehcleanup ], [ %5, %lpad6 ]
  %cleanup.isactive.2 = phi i1 [ %cleanup.isactive.1, %ehcleanup ], [ true, %lpad6 ]
  call void @_ZNSt7__cxx1112basic_stringIcSt11char_traitsIcESaIcEED1Ev(ptr noundef nonnull align 8 dereferenceable(32) %ref.tmp2) #23
  call void @_ZN8facebook3jsi5ValueD1Ev(ptr noundef nonnull align 8 dereferenceable(16) %ref.tmp3) #23
  br i1 %cleanup.isactive.2, label %cleanup.action, label %eh.resume

cleanup.action:                                   ; preds = %lpad.i, %ehcleanup14.thread20, %ehcleanup14
  %.pn.pn.pn.pn19 = phi { ptr, i32 } [ %.pn.pn, %ehcleanup14 ], [ %4, %ehcleanup14.thread20 ], [ %3, %lpad.i ]
  call void @__cxa_free_exception(ptr %exception) #23
  br label %eh.resume

if.end:                                           ; preds = %entry
  tail call void @llvm.experimental.noalias.scope.decl(metadata !57)
  %8 = load ptr, ptr %this, align 8, !noalias !57
  store ptr null, ptr %this, align 8, !noalias !57
  store ptr %8, ptr %agg.result, align 8, !alias.scope !57
  ret void

eh.resume:                                        ; preds = %ehcleanup14, %cleanup.action
  %.pn.pn.pn.pn18 = phi { ptr, i32 } [ %.pn.pn, %ehcleanup14 ], [ %.pn.pn.pn.pn19, %cleanup.action ]
  resume { ptr, i32 } %.pn.pn.pn.pn18

unreachable:                                      ; preds = %invoke.cont11
  unreachable
}